; Function Attrs: nounwind uwtable
define ptr @Gia_ManToIvySimple(ptr noundef readonly captures(none) %0) local_unnamed_addr #0 {
  %2 = getelementptr i8, ptr %0, i64 24
  %.val42 = load i32, ptr %2, align 8, !tbaa !118
  %3 = sext i32 %.val42 to i64
  %4 = shl nsw i64 %3, 3
  %5 = tail call noalias ptr @malloc(i64 noundef %4) #16
  tail call void @llvm.memset.p0.i64(ptr align 1 %5, i8 -1, i64 %4, i1 false)
  %6 = tail call ptr (...) @Ivy_ManStart() #15
  %7 = getelementptr i8, ptr %0, i64 32
  %8 = load i32, ptr %2, align 8, !tbaa !118
  %9 = icmp sgt i32 %8, 0
  br i1 %9, label %.lr.ph, label %.critedge

.lr.ph:                                           ; preds = %1
  %10 = getelementptr i8, ptr %6, i64 32
  br label %11

11:                                               ; preds = %.lr.ph, %64
  %indvars.iv = phi i64 [ 0, %.lr.ph ], [ %indvars.iv.next, %64 ]
  %.val44 = load ptr, ptr %7, align 8, !tbaa !130
  %.not = icmp eq ptr %.val44, null
  br i1 %.not, label %.critedge, label %12

12:                                               ; preds = %11
  %13 = getelementptr inbounds nuw %struct.Gia_Obj_t_, ptr %.val44, i64 %indvars.iv
  %.val45 = load i64, ptr %13, align 4
  %14 = and i64 %.val45, 2147483648
  %.not.i = icmp eq i64 %14, 0
  %15 = and i64 %.val45, 536870911
  %16 = icmp ne i64 %15, 536870911
  %narrow.i = and i1 %.not.i, %16
  br i1 %narrow.i, label %17, label %40

17:                                               ; preds = %12
  %18 = and i64 %.val45, 536870911
  %19 = sub nsw i64 %indvars.iv, %18
  %sext60 = shl i64 %19, 32
  %20 = ashr exact i64 %sext60, 29
  %21 = getelementptr inbounds i8, ptr %5, i64 %20
  %22 = load ptr, ptr %21, align 8, !tbaa !131
  %23 = lshr i64 %.val45, 29
  %24 = and i64 %23, 1
  %25 = ptrtoint ptr %22 to i64
  %26 = xor i64 %24, %25
  %27 = inttoptr i64 %26 to ptr
  %28 = lshr i64 %.val45, 32
  %29 = and i64 %28, 536870911
  %30 = sub nsw i64 %indvars.iv, %29
  %sext61 = shl i64 %30, 32
  %31 = ashr exact i64 %sext61, 29
  %32 = getelementptr inbounds i8, ptr %5, i64 %31
  %33 = load ptr, ptr %32, align 8, !tbaa !131
  %34 = lshr i64 %.val45, 61
  %35 = and i64 %34, 1
  %36 = ptrtoint ptr %33 to i64
  %37 = xor i64 %35, %36
  %38 = inttoptr i64 %37 to ptr
  %39 = tail call ptr @Ivy_And(ptr noundef %6, ptr noundef %27, ptr noundef %38) #15
  br label %.sink.split

40:                                               ; preds = %12
  %41 = and i64 %.val45, 2684354559
  %narrow.i53.not = icmp eq i64 %41, 2684354559
  br i1 %narrow.i53.not, label %42, label %44

42:                                               ; preds = %40
  %43 = tail call ptr @Ivy_ObjCreatePi(ptr noundef %6) #15
  br label %.sink.split

44:                                               ; preds = %40
  %.not.i54 = icmp ne i64 %14, 0
  %narrow.i55 = and i1 %.not.i54, %16
  br i1 %narrow.i55, label %45, label %57

45:                                               ; preds = %44
  %46 = and i64 %.val45, 536870911
  %47 = sub nsw i64 %indvars.iv, %46
  %sext = shl i64 %47, 32
  %48 = ashr exact i64 %sext, 29
  %49 = getelementptr inbounds i8, ptr %5, i64 %48
  %50 = load ptr, ptr %49, align 8, !tbaa !131
  %51 = lshr i64 %.val45, 29
  %52 = and i64 %51, 1
  %53 = ptrtoint ptr %50 to i64
  %54 = xor i64 %52, %53
  %55 = inttoptr i64 %54 to ptr
  %56 = tail call ptr @Ivy_ObjCreatePo(ptr noundef %6, ptr noundef %55) #15
  br label %.sink.split

57:                                               ; preds = %44
  %58 = and i64 %.val45, 2305843005455597567
  %narrow.i56.not = icmp eq i64 %58, 2305843005455597567
  br i1 %narrow.i56.not, label %59, label %64

59:                                               ; preds = %57
  %.val = load ptr, ptr %10, align 8, !tbaa !27
  %60 = ptrtoint ptr %.val to i64
  %61 = xor i64 %60, 1
  %62 = inttoptr i64 %61 to ptr
  br label %.sink.split

.sink.split:                                      ; preds = %42, %59, %45, %17
  %.sink = phi ptr [ %39, %17 ], [ %56, %45 ], [ %62, %59 ], [ %43, %42 ]
  %63 = getelementptr inbounds nuw ptr, ptr %5, i64 %indvars.iv
  store ptr %.sink, ptr %63, align 8, !tbaa !131
  br label %64

64:                                               ; preds = %.sink.split, %57
  %indvars.iv.next = add nuw nsw i64 %indvars.iv, 1
  %65 = load i32, ptr %2, align 8, !tbaa !118
  %66 = sext i32 %65 to i64
  %67 = icmp slt i64 %indvars.iv.next, %66
  br i1 %67, label %11, label %.critedge, !llvm.loop !132

.critedge:                                        ; preds = %11, %64, %1
  %.not37 = icmp eq ptr %5, null
  br i1 %.not37, label %69, label %68

68:                                               ; preds = %.critedge
  tail call void @free(ptr noundef nonnull %5) #15
  br label %69

69:                                               ; preds = %.critedge, %68
  ret ptr %6
}